; Function Attrs: nofree nosync nounwind memory(argmem: read) uwtable
define i32 @av_find_nearest_q_idx(i64 %0, ptr noundef readonly captures(none) %1) local_unnamed_addr #6 {
  %3 = getelementptr inbounds nuw i8, ptr %1, i64 4
  %4 = load i32, ptr %3, align 4, !tbaa !8
  %.not9 = icmp eq i32 %4, 0
  br i1 %.not9, label %._crit_edge, label %.lr.ph

.lr.ph:                                           ; preds = %2
  %5 = ashr i64 %0, 32
  %sext20.i = shl i64 %0, 32
  %6 = ashr exact i64 %sext20.i, 32
  br label %7

7:                                                ; preds = %.lr.ph, %av_nearer_q.exit
  %indvars.iv = phi i64 [ 0, %.lr.ph ], [ %indvars.iv.next, %av_nearer_q.exit ]
  %.011 = phi i32 [ 0, %.lr.ph ], [ %spec.select, %av_nearer_q.exit ]
  %8 = getelementptr inbounds nuw %struct.AVRational, ptr %1, i64 %indvars.iv
  %9 = zext nneg i32 %.011 to i64
  %10 = getelementptr inbounds nuw %struct.AVRational, ptr %1, i64 %9
  %11 = load i64, ptr %8, align 4
  %12 = load i64, ptr %10, align 4
  %sext.i = shl i64 %11, 32
  %13 = ashr exact i64 %sext.i, 32
  %14 = ashr i64 %12, 32
  %15 = mul nsw i64 %13, %14
  %sext17.i = shl i64 %12, 32
  %16 = ashr exact i64 %sext17.i, 32
  %17 = ashr i64 %11, 32
  %18 = mul nsw i64 %16, %17
  %.sroa.011.0.extract.trunc.i.i = trunc i64 %12 to i32
  %.sroa.0.0.extract.trunc.i.i = trunc i64 %11 to i32
  %.not.i.i = icmp eq i64 %18, %15
  br i1 %.not.i.i, label %26, label %19

19:                                               ; preds = %7
  %20 = sub nsw i64 %18, %15
  %21 = xor i64 %17, %20
  %22 = xor i64 %21, %14
  %23 = ashr i64 %22, 63
  %24 = trunc nsw i64 %23 to i32
  %25 = or i32 %24, 1
  br label %av_nearer_q.exit

26:                                               ; preds = %7
  %27 = icmp ugt i64 %11, 4294967295
  %28 = icmp ugt i64 %12, 4294967295
  %or.cond.i.i = and i1 %27, %28
  br i1 %or.cond.i.i, label %av_nearer_q.exit, label %29

29:                                               ; preds = %26
  %30 = icmp ne i32 %.sroa.011.0.extract.trunc.i.i, 0
  %31 = icmp ne i32 %.sroa.0.0.extract.trunc.i.i, 0
  %or.cond5.i.i = and i1 %31, %30
  br i1 %or.cond5.i.i, label %32, label %av_nearer_q.exit

32:                                               ; preds = %29
  %33 = ashr i32 %.sroa.011.0.extract.trunc.i.i, 31
  %.neg.i.i = lshr i32 %.sroa.0.0.extract.trunc.i.i, 31
  %34 = add nsw i32 %33, %.neg.i.i
  br label %av_nearer_q.exit

av_nearer_q.exit:                                 ; preds = %19, %26, %29, %32
  %.0.i.i = phi i32 [ %25, %19 ], [ %34, %32 ], [ 0, %26 ], [ -2147483648, %29 ]
  %35 = add nsw i64 %18, %15
  %36 = shl nsw i64 %17, 1
  %37 = mul nsw i64 %36, %14
  %38 = tail call i64 @av_rescale_rnd(i64 noundef %35, i64 noundef %5, i64 noundef %37, i32 noundef 2) #8
  %39 = icmp slt i64 %38, %6
  %.neg.i = sext i1 %39 to i32
  %40 = tail call i64 @av_rescale_rnd(i64 noundef %35, i64 noundef %5, i64 noundef %37, i32 noundef 3) #8
  %41 = icmp sgt i64 %40, %6
  %42 = zext i1 %41 to i32
  %43 = add nsw i32 %42, %.neg.i
  %44 = mul nsw i32 %43, %.0.i.i
  %45 = icmp sgt i32 %44, 0
  %46 = trunc nuw nsw i64 %indvars.iv to i32
  %spec.select = select i1 %45, i32 %46, i32 %.011
  %indvars.iv.next = add nuw nsw i64 %indvars.iv, 1
  %47 = getelementptr inbounds nuw %struct.AVRational, ptr %1, i64 %indvars.iv.next, i32 1
  %48 = load i32, ptr %47, align 4, !tbaa !8
  %.not = icmp eq i32 %48, 0
  br i1 %.not, label %._crit_edge, label %7, !llvm.loop !10

._crit_edge:                                      ; preds = %av_nearer_q.exit, %2
  %.0.lcssa = phi i32 [ 0, %2 ], [ %spec.select, %av_nearer_q.exit ]
  ret i32 %.0.lcssa
}